; Function Attrs: nounwind sspstrong uwtable
define internal void @qmp_chardev_open_serial(ptr noundef %chr, ptr noundef readonly captures(none) %backend, ptr readnone captures(none) %be_opened, ptr noundef %errp) #0 {
entry:
  %tty.i = alloca %struct.termios, align 4
  %u = getelementptr inbounds nuw i8, ptr %backend, i64 8
  %0 = load ptr, ptr %u, align 8
  %device = getelementptr inbounds nuw i8, ptr %0, i64 16
  %1 = load ptr, ptr %device, align 8
  %call = tail call i32 @qmp_chardev_open_file_source(ptr noundef %1, i32 noundef 2050, ptr noundef %errp) #7
  %cmp = icmp slt i32 %call, 0
  br i1 %cmp, label %return, label %if.end

if.end:                                           ; preds = %entry
  %call1 = tail call i32 @g_unix_set_fd_nonblocking(i32 noundef %call, i32 noundef 1, ptr noundef null) #7
  %tobool.not = icmp eq i32 %call1, 0
  br i1 %tobool.not, label %if.then2, label %if.end4

if.then2:                                         ; preds = %if.end
  %call3 = tail call ptr @__errno_location() #9
  %2 = load i32, ptr %call3, align 4
  tail call void (ptr, ptr, i32, ptr, i32, ptr, ...) @error_setg_errno_internal(ptr noundef %errp, ptr noundef nonnull @.str.5, i32 noundef 275, ptr noundef nonnull @__func__.qmp_chardev_open_serial, i32 noundef %2, ptr noundef nonnull @.str.7) #7
  br label %return

if.end4:                                          ; preds = %if.end
  call void @llvm.lifetime.start.p0(i64 60, ptr nonnull %tty.i)
  call void @llvm.memset.p0.i64(ptr noundef nonnull align 4 dereferenceable(60) %tty.i, i8 0, i64 60, i1 false)
  %call.i = call i32 @tcgetattr(i32 noundef %call, ptr noundef nonnull %tty.i) #7
  %call88.i = call i32 @cfsetispeed(ptr noundef nonnull %tty.i, i32 noundef 4098) #7
  %call89.i = call i32 @cfsetospeed(ptr noundef nonnull %tty.i, i32 noundef 4098) #7
  %3 = load i32, ptr %tty.i, align 4
  %and.i = and i32 %3, -1516
  store i32 %and.i, ptr %tty.i, align 4
  %c_oflag.i = getelementptr inbounds nuw i8, ptr %tty.i, i64 4
  %4 = load i32, ptr %c_oflag.i, align 4
  %and90.i = and i32 %4, -2
  store i32 %and90.i, ptr %c_oflag.i, align 4
  %c_lflag.i = getelementptr inbounds nuw i8, ptr %tty.i, i64 12
  %5 = load i32, ptr %c_lflag.i, align 4
  %and91.i = and i32 %5, -32844
  store i32 %and91.i, ptr %c_lflag.i, align 4
  %c_cflag.i = getelementptr inbounds nuw i8, ptr %tty.i, i64 8
  %6 = load i32, ptr %c_cflag.i, align 4
  %and92.i = and i32 %6, 2147482767
  %or.i = or disjoint i32 %and92.i, 48
  store i32 %or.i, ptr %c_cflag.i, align 4
  %call117.i = call i32 @tcsetattr(i32 noundef %call, i32 noundef 0, ptr noundef nonnull %tty.i) #7
  call void @llvm.lifetime.end.p0(i64 60, ptr nonnull %tty.i)
  call void @qemu_chr_open_fd(ptr noundef %chr, i32 noundef %call, i32 noundef %call) #7
  br label %return

return:                                           ; preds = %entry, %if.end4, %if.then2
  ret void
}